ccopy_reg
_reconstructor
p0
(cFWCore.ParameterSet.Config
Process
p1
c__builtin__
object
p2
Ntp3
Rp4
(dp5
S'MessageLogger'
p6
g0
(cFWCore.ParameterSet.Modules
Service
p7
g2
Ntp8
Rp9
(dp10
S'_isFrozen'
p11
I00
sS'suppressInfo'
p12
g0
(cFWCore.ParameterSet.Types
vstring
p13
c__builtin__
list
p14
(lp15
tp16
Rp17
(dp18
g11
I00
sS'_ParameterTypeBase__isTracked'
p19
I00
sS'_isModified'
p20
I00
sS'_nPerLine'
p21
I1
sbsS'suppressDebug'
p22
g0
(g13
g14
(lp23
tp24
Rp25
(dp26
g11
I00
sg19
I00
sg20
I00
sg21
I1
sbsS'cout'
p27
g0
(cFWCore.ParameterSet.Types
PSet
p28
g2
Ntp29
Rp30
(dp31
g11
I00
sg19
I00
sS'placeholder'
p32
g0
(cFWCore.ParameterSet.Types
bool
p33
g2
Ntp34
Rp35
(dp36
g11
I00
sg19
I00
sS'_value'
p37
I01
sg20
I00
sbsg20
I00
sS'_Parameterizable__parameterNames'
p38
(lp39
g32
asbsS'_lineNumber'
p40
I10
sS'debugModules'
p41
g0
(g13
g14
(lp42
tp43
Rp44
(dp45
g11
I00
sg19
I00
sg20
I00
sg21
I1
sbsS'_TypedParameterizable__type'
p46
g6
sS'fwkJobReports'
p47
g0
(g13
g14
(lp48
S'FrameworkJobReport'
p49
atp50
Rp51
(dp52
g11
I00
sg19
I00
sg20
I00
sg21
I1
sbsg38
(lp53
g12
aS'debugs'
p54
ag22
ag27
aS'cerr_stats'
p55
aS'warnings'
p56
aS'default'
p57
aS'statistics'
p58
aS'cerr'
p59
ag49
aS'suppressWarning'
p60
aS'errors'
p61
aS'destinations'
p62
ag41
aS'infos'
p63
aS'categories'
p64
ag47
asg58
g0
(g13
g14
(lp65
g55
atp66
Rp67
(dp68
g11
I00
sg19
I00
sg20
I00
sg21
I1
sbsS'_filename'
p69
S'/cvmfs/cms.cern.ch/slc7_amd64_gcc630/cms/cmssw/CMSSW_9_4_13/python/FWCore/ParameterSet/Modules.py'
p70
sg62
g0
(g13
g14
(lp71
g56
ag61
ag63
ag54
ag27
ag59
atp72
Rp73
(dp74
g11
I00
sg19
I00
sg20
I00
sg21
I1
sbsg54
g0
(g28
g2
Ntp75
Rp76
(dp77
g11
I00
sg19
I00
sg32
g0
(g33
g2
Ntp78
Rp79
(dp80
g11
I00
sg19
I00
sg37
I01
sg20
I00
sbsg20
I00
sg38
(lp81
g32
asbsg56
g0
(g28
g2
Ntp82
Rp83
(dp84
g11
I00
sg19
I00
sg32
g0
(g33
g2
Ntp85
Rp86
(dp87
g11
I00
sg19
I00
sg37
I01
sg20
I00
sbsg20
I00
sg38
(lp88
g32
asbsg61
g0
(g28
g2
Ntp89
Rp90
(dp91
g11
I00
sg19
I00
sg32
g0
(g33
g2
Ntp92
Rp93
(dp94
g11
I00
sg19
I00
sg37
I01
sg20
I00
sbsg20
I00
sg38
(lp95
g32
asbsg49
g0
(g28
g2
Ntp96
Rp97
(dp98
g11
I00
sg19
I00
sg20
I00
sg57
g0
(g28
g2
Ntp99
Rp100
(dp101
g11
I00
sg19
I00
sS'limit'
p102
g0
(cFWCore.ParameterSet.Types
int32
p103
g2
Ntp104
Rp105
(dp106
g11
I00
sg19
I00
sg37
I0
sg20
I00
sbsg20
I00
sg38
(lp107
g102
asbsS'FwkJob'
p108
g0
(g28
g2
Ntp109
Rp110
(dp111
g11
I00
sg19
I00
sg20
I00
sg102
g0
(g103
g2
Ntp112
Rp113
(dp114
g11
I00
sg19
I00
sg37
I10000000
sg20
I00
sbsg38
(lp115
S'optionalPSet'
p116
ag102
asg116
g0
(g33
g2
Ntp117
Rp118
(dp119
g11
I00
sg19
I00
sg37
I01
sg20
I00
sbsbsg38
(lp120
g57
ag116
ag108
asg116
g0
(g33
g2
Ntp121
Rp122
(dp123
g11
I00
sg19
I00
sg37
I01
sg20
I00
sbsbsg60
g0
(g13
g14
(lp124
tp125
Rp126
(dp127
g11
I00
sg19
I00
sg20
I00
sg21
I1
sbsg63
g0
(g28
g2
Ntp128
Rp129
(dp130
g11
I00
sg19
I00
sg20
I00
sS'Root_NoDictionary'
p131
g0
(g28
g2
Ntp132
Rp133
(dp134
g11
I00
sg19
I00
sg20
I00
sg102
g0
(g103
g2
Ntp135
Rp136
(dp137
g11
I00
sg19
I00
sg37
I0
sg20
I00
sbsg38
(lp138
g116
ag102
asg116
g0
(g33
g2
Ntp139
Rp140
(dp141
g11
I00
sg19
I00
sg37
I01
sg20
I00
sbsbsg38
(lp142
g116
ag131
ag32
asg116
g0
(g33
g2
Ntp143
Rp144
(dp145
g11
I00
sg19
I00
sg37
I01
sg20
I00
sbsg32
g0
(g33
g2
Ntp146
Rp147
(dp148
g11
I00
sg19
I00
sg37
I01
sg20
I00
sbsbsg64
g0
(g13
g14
(lp149
g108
aS'FwkReport'
p150
aS'FwkSummary'
p151
ag131
atp152
Rp153
(dp154
g11
I00
sg19
I00
sg20
I00
sg21
I1
sbsg20
I00
sg55
g0
(g28
g2
Ntp155
Rp156
(dp157
g11
I00
sg19
I00
sg20
I00
sg116
g0
(g33
g2
Ntp158
Rp159
(dp160
g11
I00
sg19
I00
sg37
I01
sg20
I00
sbsg38
(lp161
S'threshold'
p162
aS'output'
p163
ag116
asg162
g0
(cFWCore.ParameterSet.Types
string
p164
g2
Ntp165
Rp166
(dp167
g11
I00
sg19
I00
sg37
S'WARNING'
p168
sg20
I00
sbsg163
g0
(g164
g2
Ntp169
Rp170
(dp171
g11
I00
sg19
I00
sg37
g59
sg20
I00
sbsbsg57
g0
(g28
g2
Ntp172
Rp173
(dp174
g11
I00
sg19
I00
sg20
I00
sg38
(lp175
sbsS'_inProcess'
p176
I01
sg59
g0
(g28
g2
Ntp177
Rp178
(dp179
g11
I00
sg19
I00
sS'noTimeStamps'
p180
g0
(g33
g2
Ntp181
Rp182
(dp183
g11
I00
sg19
I00
sg37
I00
sg20
I00
sbsg150
g0
(g28
g2
Ntp184
Rp185
(dp186
g11
I00
sg19
I00
sg20
I01
sS'reportEvery'
p187
g0
(g103
g2
Ntp188
Rp189
(dp190
g11
I00
sg19
I00
sg37
I1000
sg20
I00
sbsg102
g0
(g103
g2
Ntp191
Rp192
(dp193
g11
I00
sg19
I00
sg37
I10000000
sg20
I00
sbsg38
(lp194
g187
ag116
ag102
asg116
g0
(g33
g2
Ntp195
Rp196
(dp197
g11
I00
sg19
I00
sg37
I01
sg20
I00
sbsbsg20
I00
sg57
g0
(g28
g2
Ntp198
Rp199
(dp200
g11
I00
sg19
I00
sg102
g0
(g103
g2
Ntp201
Rp202
(dp203
g11
I00
sg19
I00
sg37
I10000000
sg20
I00
sbsg20
I00
sg38
(lp204
g102
asbsg131
g0
(g28
g2
Ntp205
Rp206
(dp207
g11
I00
sg19
I00
sg20
I00
sg102
g0
(g103
g2
Ntp208
Rp209
(dp210
g11
I00
sg19
I00
sg37
I0
sg20
I00
sbsg38
(lp211
g116
ag102
asg116
g0
(g33
g2
Ntp212
Rp213
(dp214
g11
I00
sg19
I00
sg37
I01
sg20
I00
sbsbsS'INFO'
p215
g0
(g28
g2
Ntp216
Rp217
(dp218
g11
I00
sg19
I00
sg102
g0
(g103
g2
Ntp219
Rp220
(dp221
g11
I00
sg19
I00
sg37
I0
sg20
I00
sbsg20
I00
sg38
(lp222
g102
asbsg116
g0
(g33
g2
Ntp223
Rp224
(dp225
g11
I00
sg19
I00
sg37
I01
sg20
I00
sbsg108
g0
(g28
g2
Ntp226
Rp227
(dp228
g11
I00
sg19
I00
sg20
I00
sg102
g0
(g103
g2
Ntp229
Rp230
(dp231
g11
I00
sg19
I00
sg37
I0
sg20
I00
sbsg38
(lp232
g116
ag102
asg116
g0
(g33
g2
Ntp233
Rp234
(dp235
g11
I00
sg19
I00
sg37
I01
sg20
I00
sbsbsg151
g0
(g28
g2
Ntp236
Rp237
(dp238
g11
I00
sg19
I00
sg20
I00
sg187
g0
(g103
g2
Ntp239
Rp240
(dp241
g11
I00
sg19
I00
sg37
I1
sg20
I00
sbsg102
g0
(g103
g2
Ntp242
Rp243
(dp244
g11
I00
sg19
I00
sg37
I10000000
sg20
I00
sbsg38
(lp245
g187
ag116
ag102
asg116
g0
(g33
g2
Ntp246
Rp247
(dp248
g11
I00
sg19
I00
sg37
I01
sg20
I00
sbsbsg38
(lp249
g215
ag180
ag150
ag57
ag131
ag162
ag108
ag151
ag116
asg162
g0
(g164
g2
Ntp250
Rp251
(dp252
g11
I00
sg19
I00
sg37
g215
sg20
I00
sbsbsbsS'tauGenJetsSelectorAllHadrons'
p253
g0
(cFWCore.ParameterSet.Modules
EDFilter
p254
g2
Ntp255
Rp256
(dp257
g38
(lp258
S'filter'
p259
aS'src'
p260
aS'select'
p261
asg11
I00
sg20
I00
sg260
g0
(cFWCore.ParameterSet.Types
InputTag
p262
g2
Ntp263
Rp264
(dp265
g11
I00
sg19
I01
sg20
I00
sS'_InputTag__moduleLabel'
p266
S'tauGenJets'
p267
sS'_InputTag__processName'
p268
S''
p269
sS'_InputTag__productInstance'
p270
g269
sbsg69
S'/afs/hep.wisc.edu/user/ms/SM_Htt/CMSSW_9_4_13/src/SM_Htt/GenAnalysis/python/ConfFile_cfg.py'
p271
sg259
g0
(g33
g2
Ntp272
Rp273
(dp274
g11
I00
sg19
I01
sg37
I00
sg20
I00
sbsg40
I45
sg261
g0
(g13
g14
(lp275
S'oneProng0Pi0'
p276
aS'oneProng1Pi0'
p277
aS'oneProng2Pi0'
p278
aS'oneProngOther'
p279
aS'threeProng0Pi0'
p280
aS'threeProng1Pi0'
p281
aS'threeProngOther'
p282
aS'rare'
p283
atp284
Rp285
(dp286
g11
I00
sg19
I01
sg20
I00
sg21
I1
sbsS'_Labelable__label'
p287
g253
sg46
S'TauGenJetDecayModeSelector'
p288
sbsS'_Process__sequences'
p289
(dp290
sS'p'
p291
g0
(cFWCore.ParameterSet.SequenceTypes
Path
p292
g2
Ntp293
Rp294
(dp295
g11
I00
sS'_seq'
p296
g0
(cFWCore.ParameterSet.SequenceTypes
_SequenceCollection
p297
g2
Ntp298
Rp299
(dp300
S'_collection'
p301
(lp302
g0
(cFWCore.ParameterSet.Modules
EDProducer
p303
g2
Ntp304
Rp305
(dp306
g38
(lp307
S'includeNeutrinos'
p308
aS'GenParticles'
p309
aS'verbose'
p310
asg11
I00
sg20
I00
sg40
I32
sg308
g0
(g33
g2
Ntp311
Rp312
(dp313
g11
I00
sg19
I01
sg37
I00
sg20
I00
sbsg69
g271
sg287
g267
sg309
g0
(g262
g2
Ntp314
Rp315
(dp316
g11
I00
sg19
I01
sg20
I00
sg266
S'prunedGenParticles'
p317
sg268
g269
sg270
g269
sbsg46
S'TauGenJetProducer'
p318
sg310
g0
(g33
g2
Ntp319
Rp320
(dp321
g11
I00
sg19
I00
sg37
I00
sg20
I00
sbsbag256
ag0
(g254
g2
Ntp322
Rp323
(dp324
g38
(lp325
g259
ag260
ag261
asg11
I00
sg20
I00
sg260
g0
(g262
g2
Ntp326
Rp327
(dp328
g11
I00
sg19
I01
sg20
I00
sg266
g267
sg268
g269
sg270
g269
sbsg69
g271
sg259
g0
(g33
g2
Ntp329
Rp330
(dp331
g11
I00
sg19
I01
sg37
I00
sg20
I00
sbsg40
I51
sg261
g0
(g13
g14
(lp332
S'electron'
p333
atp334
Rp335
(dp336
g11
I00
sg19
I01
sg20
I00
sg21
I1
sbsg287
S'tauGenJetsSelectorElectrons'
p337
sg46
g288
sbag0
(g254
g2
Ntp338
Rp339
(dp340
g38
(lp341
g259
ag260
ag261
asg11
I00
sg20
I00
sg260
g0
(g262
g2
Ntp342
Rp343
(dp344
g11
I00
sg19
I01
sg20
I00
sg266
g267
sg268
g269
sg270
g269
sbsg69
g271
sg259
g0
(g33
g2
Ntp345
Rp346
(dp347
g11
I00
sg19
I01
sg37
I00
sg20
I00
sbsg40
I57
sg261
g0
(g13
g14
(lp348
S'muon'
p349
atp350
Rp351
(dp352
g11
I00
sg19
I01
sg20
I00
sg21
I1
sbsg287
S'tauGenJetsSelectorMuons'
p353
sg46
g288
sbag0
(g303
g2
Ntp354
Rp355
(dp356
g38
(lp357
S'inputPruned'
p358
aS'inputPacked'
p359
asg11
I00
sg20
I00
sg40
I75
sg69
g271
sg358
g0
(g262
g2
Ntp360
Rp361
(dp362
g11
I00
sg19
I01
sg20
I00
sg266
g317
sg268
g269
sg270
g269
sbsg287
S'mergedGenParticles'
p363
sg46
S'MergedGenParticleProducer'
p364
sg359
g0
(g262
g2
Ntp365
Rp366
(dp367
g11
I00
sg19
I01
sg20
I00
sg266
S'packedGenParticles'
p368
sg268
g269
sg270
g269
sbsbag0
(g303
g2
Ntp369
Rp370
(dp371
g38
(lp372
S'genParticles'
p373
aS'signalParticlePdgIds'
p374
aS'genEventInfo'
p375
asg11
I00
sg20
I00
sg40
I81
sg69
g271
sg374
g0
(cFWCore.ParameterSet.Types
vint32
p376
g14
(lp377
I25
atp378
Rp379
(dp380
g11
I00
sg19
I01
sg20
I00
sbsg287
S'myGenerator'
p381
sg373
g0
(g262
g2
Ntp382
Rp383
(dp384
g11
I00
sg19
I01
sg20
I00
sg266
g363
sg268
g269
sg270
g269
sbsg375
g0
(g262
g2
Ntp385
Rp386
(dp387
g11
I00
sg19
I01
sg20
I00
sg266
S'generator'
p388
sg268
g269
sg270
g269
sbsg46
S'GenParticles2HepMCConverter'
p389
sbag0
(g303
g2
Ntp390
Rp391
(dp392
g38
(lp393
S'HepMCCollection'
p394
aS'ProductionMode'
p395
aS'LHERunInfo'
p396
asg11
I00
sg396
g0
(g262
g2
Ntp397
Rp398
(dp399
g11
I00
sg19
I01
sg20
I00
sg266
S'externalLHEProducer'
p400
sg268
g269
sg270
g269
sbsg20
I00
sg40
I66
sg69
g271
sg287
S'rivetProducerHTXS'
p401
sg395
g0
(g164
g2
Ntp402
Rp403
(dp404
g11
I00
sg19
I01
sg37
S'AUTO'
p405
sg20
I00
sbsg394
g0
(g262
g2
Ntp406
Rp407
(dp408
g11
I00
sg19
I01
sg20
I00
sg266
g381
sg268
g269
sg270
S'unsmeared'
p409
sbsg46
S'HTXSRivetProducer'
p410
sbag0
(cFWCore.ParameterSet.Modules
EDAnalyzer
p411
g2
Ntp412
Rp413
(dp414
g38
(lp415
S'hadronSrc'
p416
aS'electronSrc'
p417
aS'lheSrc'
p418
aS'puSrc'
p419
aS'htxsRivetSrc'
p420
aS'muonSrc'
p421
asg11
I00
sg416
g0
(g262
g2
Ntp422
Rp423
(dp424
g11
I00
sg19
I01
sg20
I00
sg266
g253
sg268
g269
sg270
g269
sbsg20
I00
sg40
I101
sg417
g0
(g262
g2
Ntp425
Rp426
(dp427
g11
I00
sg19
I01
sg20
I00
sg266
g337
sg268
g269
sg270
g269
sbsg69
g271
sg418
g0
(g262
g2
Ntp428
Rp429
(dp430
g11
I00
sg19
I01
sg20
I00
sg266
g400
sg268
g269
sg270
g269
sbsg419
g0
(g262
g2
Ntp431
Rp432
(dp433
g11
I00
sg19
I01
sg20
I00
sg266
S'slimmedAddPileupInfo'
p434
sg268
g269
sg270
g269
sbsg420
g0
(g262
g2
Ntp435
Rp436
(dp437
g11
I00
sg19
I01
sg20
I00
sg266
g401
sg268
g269
sg270
g269
sbsg421
g0
(g262
g2
Ntp438
Rp439
(dp440
g11
I00
sg19
I01
sg20
I00
sg266
g353
sg268
g269
sg270
g269
sbsg287
S'demo'
p441
sg46
S'AcceptanceAnalyzer'
p442
sbasbsg287
g291
sg20
I00
sS'_tasks'
p443
g0
(cFWCore.ParameterSet.OrderedSet
OrderedSet
p444
g2
Ntp445
Rp446
(dp447
S'map'
p448
(dp449
sS'end'
p450
(lp451
Nag451
ag451
asbsbsg441
g413
sS'_Process__services'
p452
(dp453
g6
g9
sS'TFileService'
p454
g0
(g7
g2
Ntp455
Rp456
(dp457
g38
(lp458
S'fileName'
p459
asg11
I00
sg176
I01
sg20
I00
sg40
I10
sg69
g70
sg459
g0
(g164
g2
Ntp460
Rp461
(dp462
g11
I00
sg19
I01
sg37
S'ttree.root'
p463
sg20
I00
sbsg46
g454
sbssS'_Process__source'
p464
g0
(cFWCore.ParameterSet.Modules
Source
p465
g2
Ntp466
Rp467
(dp468
g38
(lp469
S'fileNames'
p470
asg11
I00
sg20
I00
sg40
I192
sg69
g70
sg470
g0
(g13
g14
(lp471
S'file:root://cmsxrootd.fnal.gov//store/mc/RunIIFall17MiniAODv2/GluGluHToTauTau_M125_13TeV_powheg_pythia8/MINIAODSIM/PU2017_12Apr2018_94X_mc2017_realistic_v14-v1/90000/D84ED2D3-5B42-E811-B73B-0CC47A745294.root'
p472
atp473
Rp474
(dp475
g11
I00
sg19
I00
sg20
I00
sg21
I1
sbsg46
S'PoolSource'
p476
sbsS'_Process__aliases'
p477
(dp478
sg401
g391
sS'_Process__psets'
p479
(dp480
S'maxEvents'
p481
g0
(g28
g2
Ntp482
Rp483
(dp484
g11
I00
sg19
I00
sg20
I00
sg38
(lp485
S'input'
p486
asg287
g481
sg486
g0
(g103
g2
Ntp487
Rp488
(dp489
g11
I00
sg19
I00
sg37
I-1
sg20
I00
sbsbssg454
g456
sS'_Process__essources'
p490
(dp491
S'HepPDTESSource'
p492
g0
(cFWCore.ParameterSet.Modules
ESSource
p493
g2
Ntp494
Rp495
(dp496
g38
(lp497
S'pdtFileName'
p498
asg11
I00
sg498
g0
(cFWCore.ParameterSet.Types
FileInPath
p499
g2
Ntp500
Rp501
(dp502
g11
I00
sg19
I01
sg37
S'SimGeneral/HepPDTESSource/data/pythiaparticle.tbl'
p503
sg20
I00
sbsg20
I00
sg40
I4
sg69
S'/cvmfs/cms.cern.ch/slc7_amd64_gcc630/cms/cmssw/CMSSW_9_4_13/python/SimGeneral/HepPDTESSource/pythiapdt_cfi.py'
p504
sg287
g492
sg46
g492
sbssg476
g467
sg481
g483
sS'source'
p505
g467
sg337
g323
sS'_Process__vpsets'
p506
(dp507
sS'_Process__name'
p508
S'Demo'
p509
sS'_Process__subProcesses'
p510
(lp511
sS'_cloneToObjectDict'
p512
(dp513
I139699464750288
g483
sI139699464750992
g256
sI139699464751184
g323
sI139699464794320
g294
sI139699464751376
g339
sI139699464750160
g495
sI139699464750544
g305
sI139699464751632
g391
sI139699464752592
g0
(g411
g2
Ntp514
Rp515
(dp516
g38
(lp517
g416
ag417
ag401
ag418
ag419
ag421
asg11
I00
sg416
g0
(g262
g2
Ntp518
Rp519
(dp520
g11
I00
sg19
I01
sg20
I00
sg266
g253
sg268
g269
sg270
g269
sbsg20
I00
sg40
I9
sg417
g0
(g262
g2
Ntp521
Rp522
(dp523
g11
I00
sg19
I01
sg20
I00
sg266
g337
sg268
g269
sg270
g269
sbsg69
S'/afs/hep.wisc.edu/user/ms/SM_Htt/CMSSW_9_4_13/python/SM_Htt/GenAnalysis/CfiFile_cfi.py'
p524
sg401
g0
(g262
g2
Ntp525
Rp526
(dp527
g11
I00
sg19
I01
sg20
I00
sg266
g401
sg268
g269
sg270
g269
sbsg418
g0
(g262
g2
Ntp528
Rp529
(dp530
g11
I00
sg19
I01
sg20
I00
sg266
g400
sg268
g269
sg270
g269
sbsg419
g0
(g262
g2
Ntp531
Rp532
(dp533
g11
I00
sg19
I01
sg20
I00
sg266
g434
sg268
g269
sg270
g269
sbsg421
g0
(g262
g2
Ntp534
Rp535
(dp536
g11
I00
sg19
I01
sg20
I00
sg266
g353
sg268
g269
sg270
g269
sbsg287
Nsg46
g442
sbsI139699464751824
g355
sI139699464752016
g370
sI139699464753040
g413
ssg267
g305
sg363
g355
sS'_Process__esprefers'
p537
(dp538
sS'_Process__schedule'
p539
Nsg492
g495
sS'_Process__outputmodules'
p540
(dp541
sS'_Process__analyzers'
p542
(dp543
g441
g413
ssS'_Process__InExtendCall'
p544
I00
sg353
g339
sS'_Process__modifiers'
p545
(tsS'_Process__producers'
p546
(dp547
g401
g391
sg267
g305
sg363
g355
sg381
g370
ssS'_Process__filters'
p548
(dp549
g253
g256
sg353
g339
sg337
g323
ssS'_Process__looper'
p550
NsS'_Process__endpaths'
p551
g0
(cFWCore.ParameterSet.DictTypes
SortedKeysDict
p552
c__builtin__
dict
p553
(dp554
tp555
Rp556
(dp557
S'list'
p558
(lp559
sbsS'_Process__esproducers'
p560
(dp561
sS'_Process__tasks'
p562
(dp563
sS'_Process__paths'
p564
g0
(g552
g553
(dp565
g291
g294
stp566
Rp567
(dp568
g558
(lp569
g291
asbsg381
g370
sS'_Process__partialschedules'
p570
(dp571
sS'_Process__isStrict'
p572
I00
sb.